; Function Attrs: mustprogress nofree norecurse nosync nounwind willreturn memory(argmem: read) uwtable
define dso_local { ptr, i64 } @_ZN4llvm23AArch64AppleInstPrinter11getMnemonicEPKNS_6MCInstE(ptr nocapture nonnull readnone align 8 %0, ptr nocapture noundef readonly %1) unnamed_addr #0 align 2 {
  %3 = load i32, ptr %1, align 8
  %4 = zext i32 %3 to i64
  %5 = getelementptr inbounds [8173 x i32], ptr @_ZZN4llvm23AArch64AppleInstPrinter11getMnemonicEPKNS_6MCInstEE7OpInfo0, i64 0, i64 %4
  %6 = load i32, ptr %5, align 4
  %7 = zext i32 %6 to i64
  %8 = getelementptr inbounds [8173 x i32], ptr @_ZZN4llvm23AArch64AppleInstPrinter11getMnemonicEPKNS_6MCInstEE7OpInfo1, i64 0, i64 %4
  %9 = load i32, ptr %8, align 4
  %10 = zext i32 %9 to i64
  %11 = shl nuw i64 %10, 32
  %12 = or disjoint i64 %11, %7
  %13 = icmp eq i64 %12, 0
  %14 = and i64 %7, 32767
  %15 = getelementptr inbounds i8, ptr @_ZZN4llvm23AArch64AppleInstPrinter11getMnemonicEPKNS_6MCInstEE7AsmStrs, i64 %14
  %16 = getelementptr inbounds i8, ptr %15, i64 -1
  %.sroa.0.0 = select i1 %13, ptr null, ptr %16
  %.fca.0.insert = insertvalue { ptr, i64 } poison, ptr %.sroa.0.0, 0
  %.fca.1.insert = insertvalue { ptr, i64 } %.fca.0.insert, i64 %12, 1
  ret { ptr, i64 } %.fca.1.insert
}